; Function Attrs: mustprogress uwtable
define noundef range(i32 -128, 128) i32 @_ZNK6icu_7717GregorianCalendar20handleGetMonthLengthEiiR10UErrorCode(ptr noundef nonnull readonly align 8 captures(none) dereferenceable(222) %0, i32 noundef %1, i32 noundef %2, ptr nonnull readnone align 4 captures(none) %3) unnamed_addr #1 align 2 {
  %5 = alloca i32, align 4
  store i32 %2, ptr %5, align 4, !tbaa !32
  %or.cond = icmp ugt i32 %2, 11
  br i1 %or.cond, label %6, label %9

6:                                                ; preds = %4
  %7 = call noundef i32 @_ZN6icu_779ClockMath11floorDivideEiiPi(i32 noundef %2, i32 noundef 12, ptr noundef nonnull %5)
  %8 = add i32 %7, %1
  br label %9

9:                                                ; preds = %4, %6
  %.0 = phi i32 [ %8, %6 ], [ %1, %4 ]
  %10 = getelementptr inbounds nuw i8, ptr %0, i64 216
  %11 = load i32, ptr %10, align 8, !tbaa !22
  %.fr = freeze i32 %11
  %.not.i = icmp slt i32 %.0, %.fr
  %12 = and i32 %.0, 3
  %13 = icmp eq i32 %12, 0
  %.not6.i = xor i1 %13, true
  %brmerge.i = or i1 %.not.i, %.not6.i
  br i1 %brmerge.i, label %_ZNK6icu_7717GregorianCalendar10isLeapYearEi.exit, label %14

14:                                               ; preds = %9
  %15 = srem i32 %.0, 100
  %.not5.i = icmp eq i32 %15, 0
  br i1 %.not5.i, label %19, label %_ZNK6icu_7717GregorianCalendar10isLeapYearEi.exit.thread

_ZNK6icu_7717GregorianCalendar10isLeapYearEi.exit.thread: ; preds = %14
  %16 = load i32, ptr %5, align 4
  %17 = sext i32 %16 to i64
  %18 = getelementptr inbounds [12 x i8], ptr @_ZL16kLeapMonthLength, i64 0, i64 %17
  br label %30

19:                                               ; preds = %14
  %20 = srem i32 %.0, 400
  %21 = icmp eq i32 %20, 0
  %22 = load i32, ptr %5, align 4
  %23 = sext i32 %22 to i64
  %24 = getelementptr inbounds [12 x i8], ptr @_ZL16kLeapMonthLength, i64 0, i64 %23
  %25 = getelementptr inbounds [12 x i8], ptr @_ZL12kMonthLength, i64 0, i64 %23
  br i1 %21, label %30, label %32

_ZNK6icu_7717GregorianCalendar10isLeapYearEi.exit: ; preds = %9
  %.mux.i = and i1 %.not.i, %13
  %26 = load i32, ptr %5, align 4
  %27 = sext i32 %26 to i64
  %28 = getelementptr inbounds [12 x i8], ptr @_ZL16kLeapMonthLength, i64 0, i64 %27
  %29 = getelementptr inbounds [12 x i8], ptr @_ZL12kMonthLength, i64 0, i64 %27
  br i1 %.mux.i, label %30, label %32

30:                                               ; preds = %19, %_ZNK6icu_7717GregorianCalendar10isLeapYearEi.exit.thread, %_ZNK6icu_7717GregorianCalendar10isLeapYearEi.exit
  %31 = phi ptr [ %18, %_ZNK6icu_7717GregorianCalendar10isLeapYearEi.exit.thread ], [ %28, %_ZNK6icu_7717GregorianCalendar10isLeapYearEi.exit ], [ %24, %19 ]
  br label %32

32:                                               ; preds = %19, %_ZNK6icu_7717GregorianCalendar10isLeapYearEi.exit, %30
  %33 = phi ptr [ %31, %30 ], [ %29, %_ZNK6icu_7717GregorianCalendar10isLeapYearEi.exit ], [ %25, %19 ]
  %34 = load i8, ptr %33, align 1, !tbaa !33
  %35 = sext i8 %34 to i32
  ret i32 %35
}